target datalayout = "e-m:e-p270:32:32-p271:32:32-p272:64:64-i64:64-i128:128-f80:128-n8:16:32:64-S128"
target triple = "x86_64-pc-linux-gnu"

%"class.cvc5::internal::theory::quantifiers::SygusModule" = type { %"class.cvc5::internal::EnvObj", ptr, ptr, ptr, ptr }
%"class.cvc5::internal::EnvObj" = type { ptr, ptr }

; Function Attrs: mustprogress uwtable
define hidden void @_ZN4cvc58internal6theory11quantifiers11SygusModuleC2ERNS0_3EnvERNS2_16QuantifiersStateERNS2_27QuantifiersInferenceManagerEPNS2_11TermDbSygusEPNS2_15SynthConjectureE(ptr noundef nonnull align 8 dereferenceable(48) %0, ptr noundef nonnull align 8 dereferenceable(696) %1, ptr noundef nonnull align 8 dereferenceable(376) %2, ptr noundef nonnull align 1 %3, ptr noundef %4, ptr noundef %5) unnamed_addr #4 align 2 {
  %7 = alloca ptr, align 8
  %8 = alloca ptr, align 8
  %9 = alloca ptr, align 8
  %10 = alloca ptr, align 8
  %11 = alloca ptr, align 8
  %12 = alloca ptr, align 8
  store ptr %0, ptr %7, align 8, !tbaa !3
  store ptr %1, ptr %8, align 8, !tbaa !8
  store ptr %2, ptr %9, align 8, !tbaa !10
  store ptr %3, ptr %10, align 8, !tbaa !12
  store ptr %4, ptr %11, align 8, !tbaa !14
  store ptr %5, ptr %12, align 8, !tbaa !16
  %13 = load ptr, ptr %7, align 8
  %14 = load ptr, ptr %8, align 8, !tbaa !8
  call void @_ZN4cvc58internal6EnvObjC2ERNS0_3EnvE(ptr noundef nonnull align 8 dereferenceable(16) %13, ptr noundef nonnull align 8 dereferenceable(696) %14)
  store ptr getelementptr inbounds inrange(-16, 64) ({ [10 x ptr] }, ptr @_ZTVN4cvc58internal6theory11quantifiers11SygusModuleE, i32 0, i32 0, i32 2), ptr %13, align 8, !tbaa !18
  %15 = getelementptr inbounds nuw %"class.cvc5::internal::theory::quantifiers::SygusModule", ptr %13, i32 0, i32 1
  %16 = load ptr, ptr %9, align 8, !tbaa !10
  store ptr %16, ptr %15, align 8, !tbaa !10
  %17 = getelementptr inbounds nuw %"class.cvc5::internal::theory::quantifiers::SygusModule", ptr %13, i32 0, i32 2
  %18 = load ptr, ptr %10, align 8, !tbaa !12
  store ptr %18, ptr %17, align 8, !tbaa !12
  %19 = getelementptr inbounds nuw %"class.cvc5::internal::theory::quantifiers::SygusModule", ptr %13, i32 0, i32 3
  %20 = load ptr, ptr %11, align 8, !tbaa !14
  store ptr %20, ptr %19, align 8, !tbaa !20
  %21 = getelementptr inbounds nuw %"class.cvc5::internal::theory::quantifiers::SygusModule", ptr %13, i32 0, i32 4
  %22 = load ptr, ptr %12, align 8, !tbaa !16
  store ptr %22, ptr %21, align 8, !tbaa !23
  ret void
}