; Function Attrs: mustprogress uwtable
define hidden void @_ZN4cvc58internal6theory11quantifiers11SygusModuleC2ERNS0_3EnvERNS2_16QuantifiersStateERNS2_27QuantifiersInferenceManagerEPNS2_11TermDbSygusEPNS2_15SynthConjectureE(ptr noundef nonnull align 8 dereferenceable(48) %0, ptr noundef nonnull align 8 dereferenceable(696) %1, ptr noundef nonnull align 8 dereferenceable(376) %2, ptr noundef nonnull align 1 %3, ptr noundef %4, ptr noundef %5) unnamed_addr #3 align 2 {
  tail call void @_ZN4cvc58internal6EnvObjC2ERNS0_3EnvE(ptr noundef nonnull align 8 dereferenceable(16) %0, ptr noundef nonnull align 8 dereferenceable(696) %1)
  store ptr getelementptr inbounds nuw inrange(-16, 64) (i8, ptr @_ZTVN4cvc58internal6theory11quantifiers11SygusModuleE, i64 16), ptr %0, align 8, !tbaa !3
  %7 = getelementptr inbounds nuw i8, ptr %0, i64 16
  store ptr %2, ptr %7, align 8, !tbaa !6
  %8 = getelementptr inbounds nuw i8, ptr %0, i64 24
  store ptr %3, ptr %8, align 8, !tbaa !10
  %9 = getelementptr inbounds nuw i8, ptr %0, i64 32
  store ptr %4, ptr %9, align 8, !tbaa !12
  %10 = getelementptr inbounds nuw i8, ptr %0, i64 40
  store ptr %5, ptr %10, align 8, !tbaa !18
  ret void
}